target datalayout = "e-m:e-p270:32:32-p271:32:32-p272:64:64-i64:64-i128:128-f80:128-n8:16:32:64-S128"
target triple = "x86_64-pc-linux-gnu"

%struct.Qureg = type { i32, i32, i32, i64, i64, i32, i32, %struct.ComplexArray, %struct.ComplexArray, %struct.ComplexArray, ptr, ptr, ptr, ptr, ptr, ptr }
%struct.ComplexArray = type { ptr, ptr }

@__func__.tGate = private unnamed_addr constant [6 x i8] c"tGate\00", align 1

; Function Attrs: nounwind uwtable
define void @tGate(ptr noundef byval(%struct.Qureg) align 8 %0, i32 noundef %1) #0 {
  %3 = alloca i32, align 4
  store i32 %1, ptr %3, align 4, !tbaa !4
  %4 = load i32, ptr %3, align 4, !tbaa !4
  call void @validateTarget(ptr noundef byval(%struct.Qureg) align 8 %0, i32 noundef %4, ptr noundef @__func__.tGate)
  %5 = load i32, ptr %3, align 4, !tbaa !4
  call void @statevec_tGate(ptr noundef byval(%struct.Qureg) align 8 %0, i32 noundef %5)
  %6 = getelementptr inbounds nuw %struct.Qureg, ptr %0, i32 0, i32 0
  %7 = load i32, ptr %6, align 8, !tbaa !13
  %8 = icmp ne i32 %7, 0
  br i1 %8, label %9, label %14

9:                                                ; preds = %2
  %10 = load i32, ptr %3, align 4, !tbaa !4
  %11 = getelementptr inbounds nuw %struct.Qureg, ptr %0, i32 0, i32 1
  %12 = load i32, ptr %11, align 4, !tbaa !18
  %13 = add nsw i32 %10, %12
  call void @statevec_tGateConj(ptr noundef byval(%struct.Qureg) align 8 %0, i32 noundef %13)
  br label %14

14:                                               ; preds = %9, %2
  %15 = load i32, ptr %3, align 4, !tbaa !4
  call void @qasm_recordGate(ptr noundef byval(%struct.Qureg) align 8 %0, i32 noundef 3, i32 noundef %15)
  ret void
}